; Function Attrs: mustprogress uwtable
define void @_ZN2cv9videostab17OnePassStabilizer14estimateMotionEv(ptr dead_on_unwind noalias writable sret(%"class.cv::Mat") align 8 %0, ptr noundef nonnull readonly align 8 captures(none) dereferenceable(712) %1) unnamed_addr #3 align 2 {
  %3 = getelementptr inbounds nuw i8, ptr %1, i64 56
  %4 = load ptr, ptr %3, align 8, !tbaa !51
  %5 = getelementptr inbounds nuw i8, ptr %1, i64 224
  %6 = load i32, ptr %5, align 8, !tbaa !106
  %7 = add nsw i32 %6, -1
  %8 = getelementptr inbounds nuw i8, ptr %1, i64 536
  %9 = getelementptr inbounds nuw i8, ptr %1, i64 544
  %10 = load ptr, ptr %9, align 8, !tbaa !113
  %11 = load ptr, ptr %8, align 8, !tbaa !112
  %12 = ptrtoint ptr %10 to i64
  %13 = ptrtoint ptr %11 to i64
  %14 = sub i64 %12, %13
  %15 = sdiv exact i64 %14, 96
  %16 = trunc i64 %15 to i32
  %17 = tail call noundef i32 @_ZN2cv17borderInterpolateEiii(i32 noundef %7, i32 noundef %16, i32 noundef 3)
  %18 = sext i32 %17 to i64
  %19 = load ptr, ptr %8, align 8, !tbaa !112
  %20 = getelementptr inbounds nuw %"class.cv::Mat", ptr %19, i64 %18
  %21 = load i32, ptr %5, align 8, !tbaa !106
  %22 = load ptr, ptr %9, align 8, !tbaa !113
  %23 = ptrtoint ptr %22 to i64
  %24 = ptrtoint ptr %19 to i64
  %25 = sub i64 %23, %24
  %26 = sdiv exact i64 %25, 96
  %27 = trunc i64 %26 to i32
  %28 = tail call noundef i32 @_ZN2cv17borderInterpolateEiii(i32 noundef %21, i32 noundef %27, i32 noundef 3)
  %29 = sext i32 %28 to i64
  %30 = load ptr, ptr %8, align 8, !tbaa !112
  %31 = getelementptr inbounds nuw %"class.cv::Mat", ptr %30, i64 %29
  %32 = load ptr, ptr %4, align 8, !tbaa !3
  %33 = getelementptr inbounds nuw i8, ptr %32, i64 40
  %34 = load ptr, ptr %33, align 8
  tail call void %34(ptr dead_on_unwind writable sret(%"class.cv::Mat") align 8 %0, ptr noundef nonnull align 8 dereferenceable(12) %4, ptr noundef nonnull align 8 dereferenceable(96) %20, ptr noundef nonnull align 8 dereferenceable(96) %31, ptr noundef null)
  ret void
}